; Function Attrs: mustprogress uwtable
define hidden noundef zeroext i1 @_ZN3p2t5Sweep20IsEdgeSideOfTriangleERNS_8TriangleERNS_5PointES4_(ptr noundef nonnull readnone align 8 captures(none) dereferenceable(24) %0, ptr noundef nonnull align 8 dereferenceable(57) %1, ptr noundef nonnull align 8 dereferenceable(40) %2, ptr noundef nonnull align 8 dereferenceable(40) %3) local_unnamed_addr #2 align 2 {
  %5 = tail call noundef i32 @_ZN3p2t8Triangle9EdgeIndexEPKNS_5PointES3_(ptr noundef nonnull align 8 dereferenceable(57) %1, ptr noundef nonnull %2, ptr noundef nonnull %3)
  %.not = icmp ne i32 %5, -1
  br i1 %.not, label %6, label %12

6:                                                ; preds = %4
  tail call void @_ZN3p2t8Triangle19MarkConstrainedEdgeEi(ptr noundef nonnull align 8 dereferenceable(57) %1, i32 noundef %5)
  %7 = getelementptr inbounds nuw i8, ptr %1, i64 32
  %8 = sext i32 %5 to i64
  %9 = getelementptr inbounds [3 x ptr], ptr %7, i64 0, i64 %8
  %10 = load ptr, ptr %9, align 8
  %.not14 = icmp eq ptr %10, null
  br i1 %.not14, label %12, label %11

11:                                               ; preds = %6
  tail call void @_ZN3p2t8Triangle19MarkConstrainedEdgeEPNS_5PointES2_(ptr noundef nonnull align 8 dereferenceable(57) %10, ptr noundef nonnull %2, ptr noundef nonnull %3)
  br label %12

12:                                               ; preds = %4, %6, %11
  ret i1 %.not
}